; Function Attrs: nounwind uwtable
define dso_local i32 @php_json_encode(ptr noundef %0, ptr noundef %1, i32 noundef %2) local_unnamed_addr #0 {
  %4 = alloca %struct._php_json_encoder, align 4
  %5 = load i32, ptr getelementptr inbounds nuw (i8, ptr @json_globals, i64 4), align 4, !tbaa !34
  call void @llvm.lifetime.start.p0(i64 12, ptr nonnull %4) #13
  call void @llvm.memset.p0.i64(ptr noundef nonnull align 4 dereferenceable(12) %4, i8 0, i64 12, i1 false)
  %6 = getelementptr inbounds nuw i8, ptr %4, i64 4
  store i32 %5, ptr %6, align 4, !tbaa !44
  %7 = call i32 @php_json_encode_zval(ptr noundef %0, ptr noundef %1, i32 noundef %2, ptr noundef nonnull %4) #13
  %8 = getelementptr inbounds nuw i8, ptr %4, i64 8
  %9 = load i32, ptr %8, align 4, !tbaa !46
  store i32 %9, ptr getelementptr inbounds nuw (i8, ptr @json_globals, i64 8), align 4, !tbaa !31
  call void @llvm.lifetime.end.p0(i64 12, ptr nonnull %4) #13
  ret i32 %7
}